target datalayout = "e-m:e-p270:32:32-p271:32:32-p272:64:64-i64:64-i128:128-f80:128-n8:16:32:64-S128"
target triple = "x86_64-pc-linux-gnu"

@.str.11 = private unnamed_addr constant [7 x i8] c" \09\0A\0B\0C\0D\00", align 1
@.str.66 = private unnamed_addr constant [16 x i8] c"rgb(%u, %u, %u)\00", align 1
@__const.nsvg__parseColorRGB.delimiter = private unnamed_addr constant [3 x i8] c",,)", align 1

; Function Attrs: nounwind uwtable
define internal i32 @nsvg__isdigit(i8 noundef signext %0) #0 {
  %2 = alloca i8, align 1
  store i8 %0, ptr %2, align 1, !tbaa !12
  %3 = load i8, ptr %2, align 1, !tbaa !12
  %4 = sext i8 %3 to i32
  %5 = icmp sge i32 %4, 48
  br i1 %5, label %6, label %10

6:                                                ; preds = %1
  %7 = load i8, ptr %2, align 1, !tbaa !12
  %8 = sext i8 %7 to i32
  %9 = icmp sle i32 %8, 57
  br label %10

10:                                               ; preds = %6, %1
  %11 = phi i1 [ false, %1 ], [ %9, %6 ]
  %12 = zext i1 %11 to i32
  ret i32 %12
}

; Function Attrs: nounwind uwtable
define internal i32 @nsvg__isspace(i8 noundef signext %0) #0 {
  %2 = alloca i8, align 1
  store i8 %0, ptr %2, align 1, !tbaa !12
  %3 = load i8, ptr %2, align 1, !tbaa !12
  %4 = sext i8 %3 to i32
  %5 = call ptr @strchr(ptr noundef @.str.11, i32 noundef %4) #13
  %6 = icmp ne ptr %5, null
  %7 = zext i1 %6 to i32
  ret i32 %7
}

; Function Attrs: nounwind uwtable
define internal i32 @nsvg__parseColorRGB(ptr noundef %0) #0 {
  %2 = alloca ptr, align 8
  %3 = alloca i32, align 4
  %4 = alloca [3 x i32], align 4
  %5 = alloca [3 x float], align 4
  %6 = alloca [3 x i8], align 1
  store ptr %0, ptr %2, align 8, !tbaa !4
  call void @llvm.lifetime.start.p0(i64 4, ptr %3) #11
  call void @llvm.lifetime.start.p0(i64 12, ptr %4) #11
  call void @llvm.lifetime.start.p0(i64 12, ptr %5) #11
  %7 = load ptr, ptr %2, align 8, !tbaa !4
  %8 = getelementptr inbounds [3 x i32], ptr %4, i64 0, i64 0
  %9 = getelementptr inbounds [3 x i32], ptr %4, i64 0, i64 1
  %10 = getelementptr inbounds [3 x i32], ptr %4, i64 0, i64 2
  %11 = call i32 (ptr, ptr, ...) @__isoc99_sscanf(ptr noundef %7, ptr noundef @.str.66, ptr noundef %8, ptr noundef %9, ptr noundef %10) #11
  %12 = icmp ne i32 %11, 3
  br i1 %12, label %13, label %170

13:                                               ; preds = %1
  call void @llvm.lifetime.start.p0(i64 3, ptr %6) #11
  call void @llvm.memcpy.p0.p0.i64(ptr align 1 %6, ptr align 1 @__const.nsvg__parseColorRGB.delimiter, i64 3, i1 false)
  %14 = load ptr, ptr %2, align 8, !tbaa !4
  %15 = getelementptr inbounds i8, ptr %14, i64 4
  store ptr %15, ptr %2, align 8, !tbaa !4
  store i32 0, ptr %3, align 4, !tbaa !10
  br label %16

16:                                               ; preds = %140, %13
  %17 = load i32, ptr %3, align 4, !tbaa !10
  %18 = icmp slt i32 %17, 3
  br i1 %18, label %19, label %143

19:                                               ; preds = %16
  br label %20

20:                                               ; preds = %32, %19
  %21 = load ptr, ptr %2, align 8, !tbaa !4
  %22 = load i8, ptr %21, align 1, !tbaa !12
  %23 = sext i8 %22 to i32
  %24 = icmp ne i32 %23, 0
  br i1 %24, label %25, label %30

25:                                               ; preds = %20
  %26 = load ptr, ptr %2, align 8, !tbaa !4
  %27 = load i8, ptr %26, align 1, !tbaa !12
  %28 = call i32 @nsvg__isspace(i8 noundef signext %27)
  %29 = icmp ne i32 %28, 0
  br label %30

30:                                               ; preds = %25, %20
  %31 = phi i1 [ false, %20 ], [ %29, %25 ]
  br i1 %31, label %32, label %35

32:                                               ; preds = %30
  %33 = load ptr, ptr %2, align 8, !tbaa !4
  %34 = getelementptr inbounds nuw i8, ptr %33, i32 1
  store ptr %34, ptr %2, align 8, !tbaa !4
  br label %20, !llvm.loop !250

35:                                               ; preds = %30
  %36 = load ptr, ptr %2, align 8, !tbaa !4
  %37 = load i8, ptr %36, align 1, !tbaa !12
  %38 = sext i8 %37 to i32
  %39 = icmp eq i32 %38, 43
  br i1 %39, label %40, label %43

40:                                               ; preds = %35
  %41 = load ptr, ptr %2, align 8, !tbaa !4
  %42 = getelementptr inbounds nuw i8, ptr %41, i32 1
  store ptr %42, ptr %2, align 8, !tbaa !4
  br label %43

43:                                               ; preds = %40, %35
  %44 = load ptr, ptr %2, align 8, !tbaa !4
  %45 = load i8, ptr %44, align 1, !tbaa !12
  %46 = icmp ne i8 %45, 0
  br i1 %46, label %48, label %47

47:                                               ; preds = %43
  br label %143

48:                                               ; preds = %43
  %49 = load ptr, ptr %2, align 8, !tbaa !4
  %50 = call double @nsvg__atof(ptr noundef %49)
  %51 = fptrunc double %50 to float
  %52 = load i32, ptr %3, align 4, !tbaa !10
  %53 = sext i32 %52 to i64
  %54 = getelementptr inbounds [3 x float], ptr %5, i64 0, i64 %53
  store float %51, ptr %54, align 4, !tbaa !23
  br label %55

55:                                               ; preds = %67, %48
  %56 = load ptr, ptr %2, align 8, !tbaa !4
  %57 = load i8, ptr %56, align 1, !tbaa !12
  %58 = sext i8 %57 to i32
  %59 = icmp ne i32 %58, 0
  br i1 %59, label %60, label %65

60:                                               ; preds = %55
  %61 = load ptr, ptr %2, align 8, !tbaa !4
  %62 = load i8, ptr %61, align 1, !tbaa !12
  %63 = call i32 @nsvg__isdigit(i8 noundef signext %62)
  %64 = icmp ne i32 %63, 0
  br label %65

65:                                               ; preds = %60, %55
  %66 = phi i1 [ false, %55 ], [ %64, %60 ]
  br i1 %66, label %67, label %70

67:                                               ; preds = %65
  %68 = load ptr, ptr %2, align 8, !tbaa !4
  %69 = getelementptr inbounds nuw i8, ptr %68, i32 1
  store ptr %69, ptr %2, align 8, !tbaa !4
  br label %55, !llvm.loop !251

70:                                               ; preds = %65
  %71 = load ptr, ptr %2, align 8, !tbaa !4
  %72 = load i8, ptr %71, align 1, !tbaa !12
  %73 = sext i8 %72 to i32
  %74 = icmp eq i32 %73, 46
  br i1 %74, label %75, label %100

75:                                               ; preds = %70
  %76 = load ptr, ptr %2, align 8, !tbaa !4
  %77 = getelementptr inbounds nuw i8, ptr %76, i32 1
  store ptr %77, ptr %2, align 8, !tbaa !4
  %78 = load ptr, ptr %2, align 8, !tbaa !4
  %79 = load i8, ptr %78, align 1, !tbaa !12
  %80 = call i32 @nsvg__isdigit(i8 noundef signext %79)
  %81 = icmp ne i32 %80, 0
  br i1 %81, label %83, label %82

82:                                               ; preds = %75
  br label %143

83:                                               ; preds = %75
  br label %84

84:                                               ; preds = %96, %83
  %85 = load ptr, ptr %2, align 8, !tbaa !4
  %86 = load i8, ptr %85, align 1, !tbaa !12
  %87 = sext i8 %86 to i32
  %88 = icmp ne i32 %87, 0
  br i1 %88, label %89, label %94

89:                                               ; preds = %84
  %90 = load ptr, ptr %2, align 8, !tbaa !4
  %91 = load i8, ptr %90, align 1, !tbaa !12
  %92 = call i32 @nsvg__isdigit(i8 noundef signext %91)
  %93 = icmp ne i32 %92, 0
  br label %94

94:                                               ; preds = %89, %84
  %95 = phi i1 [ false, %84 ], [ %93, %89 ]
  br i1 %95, label %96, label %99

96:                                               ; preds = %94
  %97 = load ptr, ptr %2, align 8, !tbaa !4
  %98 = getelementptr inbounds nuw i8, ptr %97, i32 1
  store ptr %98, ptr %2, align 8, !tbaa !4
  br label %84, !llvm.loop !252

99:                                               ; preds = %94
  br label %100

100:                                              ; preds = %99, %70
  %101 = load ptr, ptr %2, align 8, !tbaa !4
  %102 = load i8, ptr %101, align 1, !tbaa !12
  %103 = sext i8 %102 to i32
  %104 = icmp eq i32 %103, 37
  br i1 %104, label %105, label %108

105:                                              ; preds = %100
  %106 = load ptr, ptr %2, align 8, !tbaa !4
  %107 = getelementptr inbounds nuw i8, ptr %106, i32 1
  store ptr %107, ptr %2, align 8, !tbaa !4
  br label %109

108:                                              ; preds = %100
  br label %143

109:                                              ; preds = %105
  br label %110

110:                                              ; preds = %122, %109
  %111 = load ptr, ptr %2, align 8, !tbaa !4
  %112 = load i8, ptr %111, align 1, !tbaa !12
  %113 = sext i8 %112 to i32
  %114 = icmp ne i32 %113, 0
  br i1 %114, label %115, label %120

115:                                              ; preds = %110
  %116 = load ptr, ptr %2, align 8, !tbaa !4
  %117 = load i8, ptr %116, align 1, !tbaa !12
  %118 = call i32 @nsvg__isspace(i8 noundef signext %117)
  %119 = icmp ne i32 %118, 0
  br label %120

120:                                              ; preds = %115, %110
  %121 = phi i1 [ false, %110 ], [ %119, %115 ]
  br i1 %121, label %122, label %125

122:                                              ; preds = %120
  %123 = load ptr, ptr %2, align 8, !tbaa !4
  %124 = getelementptr inbounds nuw i8, ptr %123, i32 1
  store ptr %124, ptr %2, align 8, !tbaa !4
  br label %110, !llvm.loop !253

125:                                              ; preds = %120
  %126 = load ptr, ptr %2, align 8, !tbaa !4
  %127 = load i8, ptr %126, align 1, !tbaa !12
  %128 = sext i8 %127 to i32
  %129 = load i32, ptr %3, align 4, !tbaa !10
  %130 = sext i32 %129 to i64
  %131 = getelementptr inbounds [3 x i8], ptr %6, i64 0, i64 %130
  %132 = load i8, ptr %131, align 1, !tbaa !12
  %133 = sext i8 %132 to i32
  %134 = icmp eq i32 %128, %133
  br i1 %134, label %135, label %138

135:                                              ; preds = %125
  %136 = load ptr, ptr %2, align 8, !tbaa !4
  %137 = getelementptr inbounds nuw i8, ptr %136, i32 1
  store ptr %137, ptr %2, align 8, !tbaa !4
  br label %139

138:                                              ; preds = %125
  br label %143

139:                                              ; preds = %135
  br label %140

140:                                              ; preds = %139
  %141 = load i32, ptr %3, align 4, !tbaa !10
  %142 = add nsw i32 %141, 1
  store i32 %142, ptr %3, align 4, !tbaa !10
  br label %16, !llvm.loop !254

143:                                              ; preds = %138, %108, %82, %47, %16
  %144 = load i32, ptr %3, align 4, !tbaa !10
  %145 = icmp eq i32 %144, 3
  br i1 %145, label %146, label %165

146:                                              ; preds = %143
  %147 = getelementptr inbounds [3 x float], ptr %5, i64 0, i64 0
  %148 = load float, ptr %147, align 4, !tbaa !23
  %149 = fmul float %148, 0x4004666660000000
  %150 = call float @llvm.round.f32(float %149)
  %151 = fptoui float %150 to i32
  %152 = getelementptr inbounds [3 x i32], ptr %4, i64 0, i64 0
  store i32 %151, ptr %152, align 4, !tbaa !10
  %153 = getelementptr inbounds [3 x float], ptr %5, i64 0, i64 1
  %154 = load float, ptr %153, align 4, !tbaa !23
  %155 = fmul float %154, 0x4004666660000000
  %156 = call float @llvm.round.f32(float %155)
  %157 = fptoui float %156 to i32
  %158 = getelementptr inbounds [3 x i32], ptr %4, i64 0, i64 1
  store i32 %157, ptr %158, align 4, !tbaa !10
  %159 = getelementptr inbounds [3 x float], ptr %5, i64 0, i64 2
  %160 = load float, ptr %159, align 4, !tbaa !23
  %161 = fmul float %160, 0x4004666660000000
  %162 = call float @llvm.round.f32(float %161)
  %163 = fptoui float %162 to i32
  %164 = getelementptr inbounds [3 x i32], ptr %4, i64 0, i64 2
  store i32 %163, ptr %164, align 4, !tbaa !10
  br label %169

165:                                              ; preds = %143
  %166 = getelementptr inbounds [3 x i32], ptr %4, i64 0, i64 2
  store i32 128, ptr %166, align 4, !tbaa !10
  %167 = getelementptr inbounds [3 x i32], ptr %4, i64 0, i64 1
  store i32 128, ptr %167, align 4, !tbaa !10
  %168 = getelementptr inbounds [3 x i32], ptr %4, i64 0, i64 0
  store i32 128, ptr %168, align 4, !tbaa !10
  br label %169

169:                                              ; preds = %165, %146
  call void @llvm.lifetime.end.p0(i64 3, ptr %6) #11
  br label %170

170:                                              ; preds = %169, %1
  store i32 0, ptr %3, align 4, !tbaa !10
  br label %171

171:                                              ; preds = %185, %170
  %172 = load i32, ptr %3, align 4, !tbaa !10
  %173 = icmp slt i32 %172, 3
  br i1 %173, label %174, label %188

174:                                              ; preds = %171
  %175 = load i32, ptr %3, align 4, !tbaa !10
  %176 = sext i32 %175 to i64
  %177 = getelementptr inbounds [3 x i32], ptr %4, i64 0, i64 %176
  %178 = load i32, ptr %177, align 4, !tbaa !10
  %179 = icmp ugt i32 %178, 255
  br i1 %179, label %180, label %184

180:                                              ; preds = %174
  %181 = load i32, ptr %3, align 4, !tbaa !10
  %182 = sext i32 %181 to i64
  %183 = getelementptr inbounds [3 x i32], ptr %4, i64 0, i64 %182
  store i32 255, ptr %183, align 4, !tbaa !10
  br label %184

184:                                              ; preds = %180, %174
  br label %185

185:                                              ; preds = %184
  %186 = load i32, ptr %3, align 4, !tbaa !10
  %187 = add nsw i32 %186, 1
  store i32 %187, ptr %3, align 4, !tbaa !10
  br label %171, !llvm.loop !255

188:                                              ; preds = %171
  %189 = getelementptr inbounds [3 x i32], ptr %4, i64 0, i64 0
  %190 = load i32, ptr %189, align 4, !tbaa !10
  %191 = getelementptr inbounds [3 x i32], ptr %4, i64 0, i64 1
  %192 = load i32, ptr %191, align 4, !tbaa !10
  %193 = shl i32 %192, 8
  %194 = or i32 %190, %193
  %195 = getelementptr inbounds [3 x i32], ptr %4, i64 0, i64 2
  %196 = load i32, ptr %195, align 4, !tbaa !10
  %197 = shl i32 %196, 16
  %198 = or i32 %194, %197
  call void @llvm.lifetime.end.p0(i64 12, ptr %5) #11
  call void @llvm.lifetime.end.p0(i64 12, ptr %4) #11
  call void @llvm.lifetime.end.p0(i64 4, ptr %3) #11
  ret i32 %198
}