; Function Attrs: nofree nounwind uwtable
define internal fastcc i32 @nsvg__parseColorRGB(ptr noundef %0) unnamed_addr #15 {
  %2 = alloca [3 x i32], align 4
  %3 = alloca [3 x float], align 4
  call void @llvm.lifetime.start.p0(i64 12, ptr nonnull %2) #31
  call void @llvm.lifetime.start.p0(i64 12, ptr nonnull %3) #31
  %4 = getelementptr inbounds nuw i8, ptr %2, i64 4
  %5 = getelementptr inbounds nuw i8, ptr %2, i64 8
  %6 = call i32 (ptr, ptr, ...) @__isoc99_sscanf(ptr noundef %0, ptr noundef nonnull @.str.66, ptr noundef nonnull %2, ptr noundef nonnull %4, ptr noundef nonnull %5) #31
  %.not = icmp eq i32 %6, 3
  br i1 %.not, label %.preheader117, label %7

7:                                                ; preds = %1
  %8 = getelementptr inbounds nuw i8, ptr %0, i64 4
  br label %.preheader58

.preheader58:                                     ; preds = %7, %49
  %indvars.iv = phi i64 [ 0, %7 ], [ %indvars.iv.next, %49 ]
  %.03981 = phi ptr [ %8, %7 ], [ %50, %49 ]
  %9 = load i8, ptr %.03981, align 1, !tbaa !4
  %.not4166 = icmp eq i8 %9, 0
  br i1 %.not4166, label %.critedge, label %.lr.ph

.lr.ph:                                           ; preds = %.preheader58, %14
  %10 = phi i8 [ %16, %14 ], [ %9, %.preheader58 ]
  %.14067 = phi ptr [ %15, %14 ], [ %.03981, %.preheader58 ]
  %11 = zext nneg i8 %10 to i64
  %memchr.bounds.i = icmp ugt i8 %10, 63
  %12 = shl nuw i64 1, %11
  %13 = and i64 %12, 4294983169
  %memchr.bits.i = icmp eq i64 %13, 0
  %memchr1.i.not = select i1 %memchr.bounds.i, i1 true, i1 %memchr.bits.i
  br i1 %memchr1.i.not, label %.critedge.loopexit, label %14

14:                                               ; preds = %.lr.ph
  %15 = getelementptr inbounds nuw i8, ptr %.14067, i64 1
  %16 = load i8, ptr %15, align 1, !tbaa !4
  %.not41 = icmp eq i8 %16, 0
  br i1 %.not41, label %.critedge.loopexit, label %.lr.ph, !llvm.loop !250

.critedge.loopexit:                               ; preds = %14, %.lr.ph
  %.140.lcssa.ph = phi ptr [ %.14067, %.lr.ph ], [ %15, %14 ]
  %.lcssa.ph = phi i8 [ %10, %.lr.ph ], [ 0, %14 ]
  %17 = icmp eq i8 %.lcssa.ph, 43
  %18 = zext i1 %17 to i64
  br label %.critedge

.critedge:                                        ; preds = %.critedge.loopexit, %.preheader58
  %.140.lcssa = phi ptr [ %.03981, %.preheader58 ], [ %.140.lcssa.ph, %.critedge.loopexit ]
  %.lcssa = phi i64 [ 0, %.preheader58 ], [ %18, %.critedge.loopexit ]
  %spec.select = getelementptr inbounds nuw i8, ptr %.140.lcssa, i64 %.lcssa
  %19 = load i8, ptr %spec.select, align 1, !tbaa !4
  %.not43 = icmp eq i8 %19, 0
  br i1 %.not43, label %.critedge4.thread, label %20

20:                                               ; preds = %.critedge
  %21 = call fastcc double @nsvg__atof(ptr noundef nonnull %spec.select)
  %22 = fptrunc double %21 to float
  %23 = getelementptr inbounds nuw [3 x float], ptr %3, i64 0, i64 %indvars.iv
  store float %22, ptr %23, align 4, !tbaa !28
  %24 = load i8, ptr %spec.select, align 1, !tbaa !4
  %.not4472 = icmp eq i8 %24, 0
  br i1 %.not4472, label %.critedge4.thread, label %.lr.ph74

.lr.ph74:                                         ; preds = %20, %28
  %25 = phi i8 [ %30, %28 ], [ %24, %20 ]
  %.373 = phi ptr [ %29, %28 ], [ %spec.select, %20 ]
  %26 = add i8 %25, -58
  %27 = icmp ult i8 %26, -10
  br i1 %27, label %.critedge2, label %28

28:                                               ; preds = %.lr.ph74
  %29 = getelementptr inbounds nuw i8, ptr %.373, i64 1
  %30 = load i8, ptr %29, align 1, !tbaa !4
  %.not44 = icmp eq i8 %30, 0
  br i1 %.not44, label %.critedge4.thread, label %.lr.ph74, !llvm.loop !251

.critedge2:                                       ; preds = %.lr.ph74
  %31 = icmp eq i8 %25, 46
  br i1 %31, label %32, label %.critedge4

32:                                               ; preds = %.critedge2
  %33 = getelementptr inbounds nuw i8, ptr %.373, i64 1
  %34 = load i8, ptr %33, align 1, !tbaa !4
  %35 = add i8 %34, -58
  %36 = icmp ult i8 %35, -10
  br i1 %36, label %.critedge4.thread, label %.lr.ph79

.lr.ph79:                                         ; preds = %32, %.lr.ph79
  %.578 = phi ptr [ %37, %.lr.ph79 ], [ %33, %32 ]
  %37 = getelementptr inbounds nuw i8, ptr %.578, i64 1
  %.pr = load i8, ptr %37, align 1, !tbaa !4
  %38 = add i8 %.pr, -58
  %39 = icmp ult i8 %38, -10
  br i1 %39, label %.critedge4, label %.lr.ph79, !llvm.loop !252

.critedge4:                                       ; preds = %.lr.ph79, %.critedge2
  %.pr54 = phi i8 [ %25, %.critedge2 ], [ %.pr, %.lr.ph79 ]
  %.4.ph = phi ptr [ %.373, %.critedge2 ], [ %37, %.lr.ph79 ]
  %40 = icmp eq i8 %.pr54, 37
  br i1 %40, label %.preheader, label %.critedge4.thread

.preheader:                                       ; preds = %.critedge4, %42
  %.4.pn = phi ptr [ %.6, %42 ], [ %.4.ph, %.critedge4 ]
  %.6 = getelementptr inbounds nuw i8, ptr %.4.pn, i64 1
  %41 = load i8, ptr %.6, align 1, !tbaa !4
  %.not49 = icmp eq i8 %41, 0
  br i1 %.not49, label %.critedge6, label %42

42:                                               ; preds = %.preheader
  %43 = zext nneg i8 %41 to i64
  %memchr.bounds.i51 = icmp ugt i8 %41, 63
  %44 = shl nuw i64 1, %43
  %45 = and i64 %44, 4294983169
  %memchr.bits.i52 = icmp eq i64 %45, 0
  %memchr1.i53.not = select i1 %memchr.bounds.i51, i1 true, i1 %memchr.bits.i52
  br i1 %memchr1.i53.not, label %.critedge6, label %.preheader, !llvm.loop !253

.critedge6:                                       ; preds = %.preheader, %42
  %46 = getelementptr inbounds nuw [3 x i8], ptr @__const.nsvg__parseColorRGB.delimiter, i64 0, i64 %indvars.iv
  %47 = load i8, ptr %46, align 1, !tbaa !4
  %48 = icmp eq i8 %41, %47
  br i1 %48, label %49, label %.critedge4.thread

49:                                               ; preds = %.critedge6
  %50 = getelementptr inbounds nuw i8, ptr %.4.pn, i64 2
  %indvars.iv.next = add nuw nsw i64 %indvars.iv, 1
  %exitcond.not = icmp eq i64 %indvars.iv.next, 3
  br i1 %exitcond.not, label %.critedge4.thread.thread, label %.preheader58, !llvm.loop !254

.critedge4.thread:                                ; preds = %.critedge6, %.critedge4, %32, %.critedge, %20, %28
  %51 = icmp eq i64 %indvars.iv, 3
  br i1 %51, label %.critedge4.thread.thread, label %66

.critedge4.thread.thread:                         ; preds = %49, %.critedge4.thread
  %52 = load float, ptr %3, align 4, !tbaa !28
  %53 = fmul float %52, 0x4004666660000000
  %54 = call float @llvm.round.f32(float %53)
  %55 = fptoui float %54 to i32
  store i32 %55, ptr %2, align 4, !tbaa !88
  %56 = getelementptr inbounds nuw i8, ptr %3, i64 4
  %57 = load float, ptr %56, align 4, !tbaa !28
  %58 = fmul float %57, 0x4004666660000000
  %59 = call float @llvm.round.f32(float %58)
  %60 = fptoui float %59 to i32
  store i32 %60, ptr %4, align 4, !tbaa !88
  %61 = getelementptr inbounds nuw i8, ptr %3, i64 8
  %62 = load float, ptr %61, align 4, !tbaa !28
  %63 = fmul float %62, 0x4004666660000000
  %64 = call float @llvm.round.f32(float %63)
  %65 = fptoui float %64 to i32
  store i32 %65, ptr %5, align 4, !tbaa !88
  br label %.preheader117

66:                                               ; preds = %.critedge4.thread
  store i32 128, ptr %5, align 4, !tbaa !88
  store i32 128, ptr %4, align 4, !tbaa !88
  store i32 128, ptr %2, align 4, !tbaa !88
  br label %.preheader117

.preheader117:                                    ; preds = %.critedge4.thread.thread, %66, %1
  br label %67

67:                                               ; preds = %.preheader117, %72
  %indvars.iv92 = phi i64 [ %indvars.iv.next93, %72 ], [ 0, %.preheader117 ]
  %68 = getelementptr inbounds nuw [3 x i32], ptr %2, i64 0, i64 %indvars.iv92
  %69 = load i32, ptr %68, align 4, !tbaa !88
  %70 = icmp ugt i32 %69, 255
  br i1 %70, label %71, label %72

71:                                               ; preds = %67
  store i32 255, ptr %68, align 4, !tbaa !88
  br label %72

72:                                               ; preds = %67, %71
  %indvars.iv.next93 = add nuw nsw i64 %indvars.iv92, 1
  %exitcond95.not = icmp eq i64 %indvars.iv.next93, 3
  br i1 %exitcond95.not, label %73, label %67, !llvm.loop !255

73:                                               ; preds = %72
  %74 = load i32, ptr %2, align 4, !tbaa !88
  %75 = load i32, ptr %4, align 4, !tbaa !88
  %76 = shl i32 %75, 8
  %77 = or i32 %76, %74
  %78 = load i32, ptr %5, align 4, !tbaa !88
  %79 = shl i32 %78, 16
  %80 = or i32 %77, %79
  call void @llvm.lifetime.end.p0(i64 12, ptr nonnull %3) #31
  call void @llvm.lifetime.end.p0(i64 12, ptr nonnull %2) #31
  ret i32 %80
}